---
triple:          'arm64-apple-darwin'
binary-path:     numero_exec
relocations:
  - { offset: 0x8421, size: 0x8, addend: 0x0, symName: __ZStL8__ioinit, symObjAddr: 0x2C7FB, symBinAddr: 0x100010000, symSize: 0x0 }
  - { offset: 0x8BA6, size: 0x8, addend: 0x0, symName: __ZNSt10_Head_baseILm0EP8ComplejoLb0EE7_M_headERKS2_, symObjAddr: 0x1B00, symBinAddr: 0x100006214, symSize: 0x14 }
  - { offset: 0x8BCD, size: 0x8, addend: 0x0, symName: __ZNSt10_Head_baseILm1ESt14default_deleteI8ComplejoELb1EE7_M_headERS3_, symObjAddr: 0x1AEC, symBinAddr: 0x100006200, symSize: 0x14 }
  - { offset: 0x8C10, size: 0x8, addend: 0x0, symName: __ZNSt10_Head_baseILm1ESt14default_deleteI8ComplejoELb1EEC2Ev, symObjAddr: 0x1AD8, symBinAddr: 0x1000061EC, symSize: 0x14 }
  - { offset: 0x8C30, size: 0x8, addend: 0x0, symName: __ZNSt10_Head_baseILm0EP4RealLb0EE7_M_headERKS2_, symObjAddr: 0x1AC4, symBinAddr: 0x1000061D8, symSize: 0x14 }
  - { offset: 0x8C57, size: 0x8, addend: 0x0, symName: __ZNSt10_Head_baseILm1ESt14default_deleteI4RealELb1EE7_M_headERS3_, symObjAddr: 0x1AB0, symBinAddr: 0x1000061C4, symSize: 0x14 }
  - { offset: 0x8C9A, size: 0x8, addend: 0x0, symName: __ZNSt10_Head_baseILm1ESt14default_deleteI4RealELb1EEC2Ev, symObjAddr: 0x1A9C, symBinAddr: 0x1000061B0, symSize: 0x14 }
  - { offset: 0x8CBA, size: 0x8, addend: 0x0, symName: __ZNSt10_Head_baseILm0EP6NumeroLb0EE7_M_headERKS2_, symObjAddr: 0x1A88, symBinAddr: 0x10000619C, symSize: 0x14 }
  - { offset: 0x8CE1, size: 0x8, addend: 0x0, symName: __ZNSt10_Head_baseILm1ESt14default_deleteI6NumeroELb1EE7_M_headERS3_, symObjAddr: 0x1A74, symBinAddr: 0x100006188, symSize: 0x14 }
  - { offset: 0x8D08, size: 0x8, addend: 0x0, symName: __ZNSt10_Head_baseILm0EP6EnteroLb0EE7_M_headERKS2_, symObjAddr: 0x1A60, symBinAddr: 0x100006174, symSize: 0x14 }
  - { offset: 0x8D2F, size: 0x8, addend: 0x0, symName: __ZNSt10_Head_baseILm1ESt14default_deleteI6EnteroELb1EE7_M_headERS3_, symObjAddr: 0x1A4C, symBinAddr: 0x100006160, symSize: 0x14 }
  - { offset: 0x8D72, size: 0x8, addend: 0x0, symName: __ZNSt10_Head_baseILm1ESt14default_deleteI6EnteroELb1EEC2Ev, symObjAddr: 0x1A38, symBinAddr: 0x10000614C, symSize: 0x14 }
  - { offset: 0x8D92, size: 0x8, addend: 0x0, symName: __ZNSt11_Tuple_implILm0EJP8ComplejoSt14default_deleteIS0_EEE7_M_headERKS4_, symObjAddr: 0x1A1C, symBinAddr: 0x100006130, symSize: 0x1C }
  - { offset: 0x8DBA, size: 0x8, addend: 0x0, symName: __ZNSt11_Tuple_implILm1EJSt14default_deleteI8ComplejoEEE7_M_headERS3_, symObjAddr: 0x1A00, symBinAddr: 0x100006114, symSize: 0x1C }
  - { offset: 0x8DE2, size: 0x8, addend: 0x0, symName: __ZNSt10_Head_baseILm0EP8ComplejoLb0EE7_M_headERS2_, symObjAddr: 0x19EC, symBinAddr: 0x100006100, symSize: 0x14 }
  - { offset: 0x8E25, size: 0x8, addend: 0x0, symName: __ZNSt10_Head_baseILm0EP8ComplejoLb0EEC2Ev, symObjAddr: 0x19D0, symBinAddr: 0x1000060E4, symSize: 0x1C }
  - { offset: 0x8E61, size: 0x8, addend: 0x0, symName: __ZNSt11_Tuple_implILm1EJSt14default_deleteI8ComplejoEEEC2Ev, symObjAddr: 0x19B0, symBinAddr: 0x1000060C4, symSize: 0x20 }
  - { offset: 0x8E81, size: 0x8, addend: 0x0, symName: __ZNSt11_Tuple_implILm0EJP4RealSt14default_deleteIS0_EEE7_M_headERKS4_, symObjAddr: 0x1994, symBinAddr: 0x1000060A8, symSize: 0x1C }
  - { offset: 0x8EA9, size: 0x8, addend: 0x0, symName: __ZNSt11_Tuple_implILm1EJSt14default_deleteI4RealEEE7_M_headERS3_, symObjAddr: 0x1978, symBinAddr: 0x10000608C, symSize: 0x1C }
  - { offset: 0x8ED1, size: 0x8, addend: 0x0, symName: __ZNSt10_Head_baseILm0EP4RealLb0EE7_M_headERS2_, symObjAddr: 0x1964, symBinAddr: 0x100006078, symSize: 0x14 }
  - { offset: 0x8F14, size: 0x8, addend: 0x0, symName: __ZNSt10_Head_baseILm0EP4RealLb0EEC2Ev, symObjAddr: 0x1948, symBinAddr: 0x10000605C, symSize: 0x1C }
  - { offset: 0x8F50, size: 0x8, addend: 0x0, symName: __ZNSt11_Tuple_implILm1EJSt14default_deleteI4RealEEEC2Ev, symObjAddr: 0x1928, symBinAddr: 0x10000603C, symSize: 0x20 }
  - { offset: 0x8F70, size: 0x8, addend: 0x0, symName: __ZNSt11_Tuple_implILm0EJP6NumeroSt14default_deleteIS0_EEE7_M_headERKS4_, symObjAddr: 0x190C, symBinAddr: 0x100006020, symSize: 0x1C }
  - { offset: 0x8F98, size: 0x8, addend: 0x0, symName: __ZNSt11_Tuple_implILm1EJSt14default_deleteI6NumeroEEE7_M_headERS3_, symObjAddr: 0x18F0, symBinAddr: 0x100006004, symSize: 0x1C }
  - { offset: 0x8FC0, size: 0x8, addend: 0x0, symName: __ZNSt10_Head_baseILm0EP6NumeroLb0EE7_M_headERS2_, symObjAddr: 0x18DC, symBinAddr: 0x100005FF0, symSize: 0x14 }
  - { offset: 0x8FE7, size: 0x8, addend: 0x0, symName: __ZNSt11_Tuple_implILm0EJP6EnteroSt14default_deleteIS0_EEE7_M_headERKS4_, symObjAddr: 0x18C0, symBinAddr: 0x100005FD4, symSize: 0x1C }
  - { offset: 0x900F, size: 0x8, addend: 0x0, symName: __ZNSt11_Tuple_implILm1EJSt14default_deleteI6EnteroEEE7_M_headERS3_, symObjAddr: 0x18A4, symBinAddr: 0x100005FB8, symSize: 0x1C }
  - { offset: 0x9037, size: 0x8, addend: 0x0, symName: __ZNSt10_Head_baseILm0EP6EnteroLb0EE7_M_headERS2_, symObjAddr: 0x1890, symBinAddr: 0x100005FA4, symSize: 0x14 }
  - { offset: 0x907A, size: 0x8, addend: 0x0, symName: __ZNSt10_Head_baseILm0EP6EnteroLb0EEC2Ev, symObjAddr: 0x1874, symBinAddr: 0x100005F88, symSize: 0x1C }
  - { offset: 0x90B6, size: 0x8, addend: 0x0, symName: __ZNSt11_Tuple_implILm1EJSt14default_deleteI6EnteroEEEC2Ev, symObjAddr: 0x1854, symBinAddr: 0x100005F68, symSize: 0x20 }
  - { offset: 0x90D6, size: 0x8, addend: 0x0, symName: __ZSt12__get_helperILm0EP8ComplejoJSt14default_deleteIS0_EEERKT0_RKSt11_Tuple_implIXT_EJS4_DpT1_EE, symObjAddr: 0x1838, symBinAddr: 0x100005F4C, symSize: 0x1C }
  - { offset: 0x911C, size: 0x8, addend: 0x0, symName: __ZSt12__get_helperILm1ESt14default_deleteI8ComplejoEJEERT0_RSt11_Tuple_implIXT_EJS3_DpT1_EE, symObjAddr: 0x181C, symBinAddr: 0x100005F30, symSize: 0x1C }
  - { offset: 0x915C, size: 0x8, addend: 0x0, symName: __ZNSt11_Tuple_implILm0EJP8ComplejoSt14default_deleteIS0_EEE7_M_headERS4_, symObjAddr: 0x1800, symBinAddr: 0x100005F14, symSize: 0x1C }
  - { offset: 0x91A0, size: 0x8, addend: 0x0, symName: __ZNSt11_Tuple_implILm0EJP8ComplejoSt14default_deleteIS0_EEEC2Ev, symObjAddr: 0x17D8, symBinAddr: 0x100005EEC, symSize: 0x28 }
  - { offset: 0x91C0, size: 0x8, addend: 0x0, symName: __ZSt12__get_helperILm0EP4RealJSt14default_deleteIS0_EEERKT0_RKSt11_Tuple_implIXT_EJS4_DpT1_EE, symObjAddr: 0x17BC, symBinAddr: 0x100005ED0, symSize: 0x1C }
  - { offset: 0x9206, size: 0x8, addend: 0x0, symName: __ZSt12__get_helperILm1ESt14default_deleteI4RealEJEERT0_RSt11_Tuple_implIXT_EJS3_DpT1_EE, symObjAddr: 0x17A0, symBinAddr: 0x100005EB4, symSize: 0x1C }
  - { offset: 0x9246, size: 0x8, addend: 0x0, symName: __ZNSt11_Tuple_implILm0EJP4RealSt14default_deleteIS0_EEE7_M_headERS4_, symObjAddr: 0x1784, symBinAddr: 0x100005E98, symSize: 0x1C }
  - { offset: 0x928A, size: 0x8, addend: 0x0, symName: __ZNSt11_Tuple_implILm0EJP4RealSt14default_deleteIS0_EEEC2Ev, symObjAddr: 0x175C, symBinAddr: 0x100005E70, symSize: 0x28 }
  - { offset: 0x92AA, size: 0x8, addend: 0x0, symName: __ZSt12__get_helperILm0EP6NumeroJSt14default_deleteIS0_EEERKT0_RKSt11_Tuple_implIXT_EJS4_DpT1_EE, symObjAddr: 0x1740, symBinAddr: 0x100005E54, symSize: 0x1C }
  - { offset: 0x92F0, size: 0x8, addend: 0x0, symName: __ZSt12__get_helperILm1ESt14default_deleteI6NumeroEJEERT0_RSt11_Tuple_implIXT_EJS3_DpT1_EE, symObjAddr: 0x1724, symBinAddr: 0x100005E38, symSize: 0x1C }
  - { offset: 0x9330, size: 0x8, addend: 0x0, symName: __ZNSt11_Tuple_implILm0EJP6NumeroSt14default_deleteIS0_EEE7_M_headERS4_, symObjAddr: 0x1708, symBinAddr: 0x100005E1C, symSize: 0x1C }
  - { offset: 0x9358, size: 0x8, addend: 0x0, symName: __ZSt12__get_helperILm0EP6EnteroJSt14default_deleteIS0_EEERKT0_RKSt11_Tuple_implIXT_EJS4_DpT1_EE, symObjAddr: 0x16EC, symBinAddr: 0x100005E00, symSize: 0x1C }
  - { offset: 0x939E, size: 0x8, addend: 0x0, symName: __ZSt12__get_helperILm1ESt14default_deleteI6EnteroEJEERT0_RSt11_Tuple_implIXT_EJS3_DpT1_EE, symObjAddr: 0x16D0, symBinAddr: 0x100005DE4, symSize: 0x1C }
  - { offset: 0x93DE, size: 0x8, addend: 0x0, symName: __ZNSt11_Tuple_implILm0EJP6EnteroSt14default_deleteIS0_EEE7_M_headERS4_, symObjAddr: 0x16B4, symBinAddr: 0x100005DC8, symSize: 0x1C }
  - { offset: 0x9422, size: 0x8, addend: 0x0, symName: __ZNSt11_Tuple_implILm0EJP6EnteroSt14default_deleteIS0_EEEC2Ev, symObjAddr: 0x168C, symBinAddr: 0x100005DA0, symSize: 0x28 }
  - { offset: 0x9448, size: 0x8, addend: 0x0, symName: __ZSt3getILm0EJP8ComplejoSt14default_deleteIS0_EEERKNSt13tuple_elementIXT_ESt5tupleIJDpT0_EEE4typeERKS8_, symObjAddr: 0x1670, symBinAddr: 0x100005D84, symSize: 0x1C }
  - { offset: 0x9490, size: 0x8, addend: 0x0, symName: __ZSt3getILm1EJP8ComplejoSt14default_deleteIS0_EEERNSt13tuple_elementIXT_ESt5tupleIJDpT0_EEE4typeERS8_, symObjAddr: 0x1654, symBinAddr: 0x100005D68, symSize: 0x1C }
  - { offset: 0x94D2, size: 0x8, addend: 0x0, symName: __ZSt12__get_helperILm0EP8ComplejoJSt14default_deleteIS0_EEERT0_RSt11_Tuple_implIXT_EJS4_DpT1_EE, symObjAddr: 0x1638, symBinAddr: 0x100005D4C, symSize: 0x1C }
  - { offset: 0x953E, size: 0x8, addend: 0x0, symName: __ZNSt5tupleIJP8ComplejoSt14default_deleteIS0_EEEC1ILb1ELb1EEEv, symObjAddr: 0x1618, symBinAddr: 0x100005D2C, symSize: 0x20 }
  - { offset: 0x956E, size: 0x8, addend: 0x0, symName: __ZSt3getILm0EJP4RealSt14default_deleteIS0_EEERKNSt13tuple_elementIXT_ESt5tupleIJDpT0_EEE4typeERKS8_, symObjAddr: 0x15FC, symBinAddr: 0x100005D10, symSize: 0x1C }
  - { offset: 0x95B6, size: 0x8, addend: 0x0, symName: __ZSt3getILm1EJP4RealSt14default_deleteIS0_EEERNSt13tuple_elementIXT_ESt5tupleIJDpT0_EEE4typeERS8_, symObjAddr: 0x15E0, symBinAddr: 0x100005CF4, symSize: 0x1C }
  - { offset: 0x95F8, size: 0x8, addend: 0x0, symName: __ZSt12__get_helperILm0EP4RealJSt14default_deleteIS0_EEERT0_RSt11_Tuple_implIXT_EJS4_DpT1_EE, symObjAddr: 0x15C4, symBinAddr: 0x100005CD8, symSize: 0x1C }
  - { offset: 0x9664, size: 0x8, addend: 0x0, symName: __ZNSt5tupleIJP4RealSt14default_deleteIS0_EEEC1ILb1ELb1EEEv, symObjAddr: 0x15A4, symBinAddr: 0x100005CB8, symSize: 0x20 }
  - { offset: 0x9694, size: 0x8, addend: 0x0, symName: __ZSt3getILm0EJP6NumeroSt14default_deleteIS0_EEERKNSt13tuple_elementIXT_ESt5tupleIJDpT0_EEE4typeERKS8_, symObjAddr: 0x1588, symBinAddr: 0x100005C9C, symSize: 0x1C }
  - { offset: 0x96DC, size: 0x8, addend: 0x0, symName: __ZSt3getILm1EJP6NumeroSt14default_deleteIS0_EEERNSt13tuple_elementIXT_ESt5tupleIJDpT0_EEE4typeERS8_, symObjAddr: 0x156C, symBinAddr: 0x100005C80, symSize: 0x1C }
  - { offset: 0x971E, size: 0x8, addend: 0x0, symName: __ZSt12__get_helperILm0EP6NumeroJSt14default_deleteIS0_EEERT0_RSt11_Tuple_implIXT_EJS4_DpT1_EE, symObjAddr: 0x1550, symBinAddr: 0x100005C64, symSize: 0x1C }
  - { offset: 0x976A, size: 0x8, addend: 0x0, symName: __ZSt3getILm0EJP6EnteroSt14default_deleteIS0_EEERKNSt13tuple_elementIXT_ESt5tupleIJDpT0_EEE4typeERKS8_, symObjAddr: 0x1534, symBinAddr: 0x100005C48, symSize: 0x1C }
  - { offset: 0x97B2, size: 0x8, addend: 0x0, symName: __ZSt3getILm1EJP6EnteroSt14default_deleteIS0_EEERNSt13tuple_elementIXT_ESt5tupleIJDpT0_EEE4typeERS8_, symObjAddr: 0x1518, symBinAddr: 0x100005C2C, symSize: 0x1C }
  - { offset: 0x97F4, size: 0x8, addend: 0x0, symName: __ZSt12__get_helperILm0EP6EnteroJSt14default_deleteIS0_EEERT0_RSt11_Tuple_implIXT_EJS4_DpT1_EE, symObjAddr: 0x14FC, symBinAddr: 0x100005C10, symSize: 0x1C }
  - { offset: 0x9860, size: 0x8, addend: 0x0, symName: __ZNSt5tupleIJP6EnteroSt14default_deleteIS0_EEEC1ILb1ELb1EEEv, symObjAddr: 0x14DC, symBinAddr: 0x100005BF0, symSize: 0x20 }
  - { offset: 0x988E, size: 0x8, addend: 0x0, symName: __ZNKSt15__uniq_ptr_implI8ComplejoSt14default_deleteIS0_EE6_M_ptrEv, symObjAddr: 0x14BC, symBinAddr: 0x100005BD0, symSize: 0x20 }
  - { offset: 0x98B6, size: 0x8, addend: 0x0, symName: __ZNSt15__uniq_ptr_implI8ComplejoSt14default_deleteIS0_EE10_M_deleterEv, symObjAddr: 0x14A0, symBinAddr: 0x100005BB4, symSize: 0x1C }
  - { offset: 0x98E0, size: 0x8, addend: 0x0, symName: __ZSt3getILm0EJP8ComplejoSt14default_deleteIS0_EEERNSt13tuple_elementIXT_ESt5tupleIJDpT0_EEE4typeERS8_, symObjAddr: 0x1484, symBinAddr: 0x100005B98, symSize: 0x1C }
  - { offset: 0x994A, size: 0x8, addend: 0x0, symName: __ZNSt15__uniq_ptr_implI8ComplejoSt14default_deleteIS0_EEC2EPS0_, symObjAddr: 0x1448, symBinAddr: 0x100005B5C, symSize: 0x3C }
  - { offset: 0x9976, size: 0x8, addend: 0x0, symName: __ZNKSt15__uniq_ptr_implI4RealSt14default_deleteIS0_EE6_M_ptrEv, symObjAddr: 0x1428, symBinAddr: 0x100005B3C, symSize: 0x20 }
  - { offset: 0x999E, size: 0x8, addend: 0x0, symName: __ZNSt15__uniq_ptr_implI4RealSt14default_deleteIS0_EE10_M_deleterEv, symObjAddr: 0x140C, symBinAddr: 0x100005B20, symSize: 0x1C }
  - { offset: 0x99C8, size: 0x8, addend: 0x0, symName: __ZSt3getILm0EJP4RealSt14default_deleteIS0_EEERNSt13tuple_elementIXT_ESt5tupleIJDpT0_EEE4typeERS8_, symObjAddr: 0x13F0, symBinAddr: 0x100005B04, symSize: 0x1C }
  - { offset: 0x9A32, size: 0x8, addend: 0x0, symName: __ZNSt15__uniq_ptr_implI4RealSt14default_deleteIS0_EEC2EPS0_, symObjAddr: 0x13B4, symBinAddr: 0x100005AC8, symSize: 0x3C }
  - { offset: 0x9A5E, size: 0x8, addend: 0x0, symName: __ZNKSt15__uniq_ptr_implI6NumeroSt14default_deleteIS0_EE6_M_ptrEv, symObjAddr: 0x1394, symBinAddr: 0x100005AA8, symSize: 0x20 }
  - { offset: 0x9A86, size: 0x8, addend: 0x0, symName: __ZNSt15__uniq_ptr_implI6NumeroSt14default_deleteIS0_EE10_M_deleterEv, symObjAddr: 0x1378, symBinAddr: 0x100005A8C, symSize: 0x1C }
  - { offset: 0x9AB0, size: 0x8, addend: 0x0, symName: __ZSt3getILm0EJP6NumeroSt14default_deleteIS0_EEERNSt13tuple_elementIXT_ESt5tupleIJDpT0_EEE4typeERS8_, symObjAddr: 0x135C, symBinAddr: 0x100005A70, symSize: 0x1C }
  - { offset: 0x9AF6, size: 0x8, addend: 0x0, symName: __ZNKSt15__uniq_ptr_implI6EnteroSt14default_deleteIS0_EE6_M_ptrEv, symObjAddr: 0x133C, symBinAddr: 0x100005A50, symSize: 0x20 }
  - { offset: 0x9B1E, size: 0x8, addend: 0x0, symName: __ZNSt15__uniq_ptr_implI6EnteroSt14default_deleteIS0_EE10_M_deleterEv, symObjAddr: 0x1320, symBinAddr: 0x100005A34, symSize: 0x1C }
  - { offset: 0x9B48, size: 0x8, addend: 0x0, symName: __ZSt3getILm0EJP6EnteroSt14default_deleteIS0_EEERNSt13tuple_elementIXT_ESt5tupleIJDpT0_EEE4typeERS8_, symObjAddr: 0x1304, symBinAddr: 0x100005A18, symSize: 0x1C }
  - { offset: 0x9BB2, size: 0x8, addend: 0x0, symName: __ZNSt15__uniq_ptr_implI6EnteroSt14default_deleteIS0_EEC2EPS0_, symObjAddr: 0x12C8, symBinAddr: 0x1000059DC, symSize: 0x3C }
  - { offset: 0x9BDE, size: 0x8, addend: 0x0, symName: __ZNKSt10unique_ptrI8ComplejoSt14default_deleteIS0_EE3getEv, symObjAddr: 0x12AC, symBinAddr: 0x1000059C0, symSize: 0x1C }
  - { offset: 0x9C06, size: 0x8, addend: 0x0, symName: __ZNKSt14default_deleteI8ComplejoEclEPS0_, symObjAddr: 0x127C, symBinAddr: 0x100005990, symSize: 0x30 }
  - { offset: 0x9C3F, size: 0x8, addend: 0x0, symName: __ZSt4moveIRP8ComplejoEONSt16remove_referenceIT_E4typeEOS4_, symObjAddr: 0x1268, symBinAddr: 0x10000597C, symSize: 0x14 }
  - { offset: 0x9C73, size: 0x8, addend: 0x0, symName: __ZNSt10unique_ptrI8ComplejoSt14default_deleteIS0_EE11get_deleterEv, symObjAddr: 0x124C, symBinAddr: 0x100005960, symSize: 0x1C }
  - { offset: 0x9C9B, size: 0x8, addend: 0x0, symName: __ZNSt15__uniq_ptr_implI8ComplejoSt14default_deleteIS0_EE6_M_ptrEv, symObjAddr: 0x1230, symBinAddr: 0x100005944, symSize: 0x1C }
  - { offset: 0x9CF1, size: 0x8, addend: 0x0, symName: __ZNSt10unique_ptrI8ComplejoSt14default_deleteIS0_EEC1IS2_vEEPS0_, symObjAddr: 0x1208, symBinAddr: 0x10000591C, symSize: 0x28 }
  - { offset: 0x9D46, size: 0x8, addend: 0x0, symName: __ZNSt15__uniq_ptr_dataI8ComplejoSt14default_deleteIS0_ELb1ELb1EECI1St15__uniq_ptr_implIS0_S2_EEPS0_, symObjAddr: 0x11E0, symBinAddr: 0x1000058F4, symSize: 0x28 }
  - { offset: 0x9D72, size: 0x8, addend: 0x0, symName: __ZNKSt10unique_ptrI4RealSt14default_deleteIS0_EE3getEv, symObjAddr: 0x11C4, symBinAddr: 0x1000058D8, symSize: 0x1C }
  - { offset: 0x9D9A, size: 0x8, addend: 0x0, symName: __ZNKSt14default_deleteI4RealEclEPS0_, symObjAddr: 0x1194, symBinAddr: 0x1000058A8, symSize: 0x30 }
  - { offset: 0x9DD3, size: 0x8, addend: 0x0, symName: __ZSt4moveIRP4RealEONSt16remove_referenceIT_E4typeEOS4_, symObjAddr: 0x1180, symBinAddr: 0x100005894, symSize: 0x14 }
  - { offset: 0x9E07, size: 0x8, addend: 0x0, symName: __ZNSt10unique_ptrI4RealSt14default_deleteIS0_EE11get_deleterEv, symObjAddr: 0x1164, symBinAddr: 0x100005878, symSize: 0x1C }
  - { offset: 0x9E2F, size: 0x8, addend: 0x0, symName: __ZNSt15__uniq_ptr_implI4RealSt14default_deleteIS0_EE6_M_ptrEv, symObjAddr: 0x1148, symBinAddr: 0x10000585C, symSize: 0x1C }
  - { offset: 0x9E85, size: 0x8, addend: 0x0, symName: __ZNSt10unique_ptrI4RealSt14default_deleteIS0_EEC1IS2_vEEPS0_, symObjAddr: 0x1120, symBinAddr: 0x100005834, symSize: 0x28 }
  - { offset: 0x9EDA, size: 0x8, addend: 0x0, symName: __ZNSt15__uniq_ptr_dataI4RealSt14default_deleteIS0_ELb1ELb1EECI1St15__uniq_ptr_implIS0_S2_EEPS0_, symObjAddr: 0x10F8, symBinAddr: 0x10000580C, symSize: 0x28 }
  - { offset: 0x9F08, size: 0x8, addend: 0x0, symName: __ZSt7forwardIdEOT_RNSt16remove_referenceIS0_E4typeE, symObjAddr: 0x10E4, symBinAddr: 0x1000057F8, symSize: 0x14 }
  - { offset: 0x9F3C, size: 0x8, addend: 0x0, symName: __ZNKSt10unique_ptrI6NumeroSt14default_deleteIS0_EE3getEv, symObjAddr: 0x10C8, symBinAddr: 0x1000057DC, symSize: 0x1C }
  - { offset: 0x9F64, size: 0x8, addend: 0x0, symName: __ZNKSt14default_deleteI6NumeroEclEPS0_, symObjAddr: 0x1098, symBinAddr: 0x1000057AC, symSize: 0x30 }
  - { offset: 0x9F9D, size: 0x8, addend: 0x0, symName: __ZSt4moveIRP6NumeroEONSt16remove_referenceIT_E4typeEOS4_, symObjAddr: 0x1084, symBinAddr: 0x100005798, symSize: 0x14 }
  - { offset: 0x9FD1, size: 0x8, addend: 0x0, symName: __ZNSt10unique_ptrI6NumeroSt14default_deleteIS0_EE11get_deleterEv, symObjAddr: 0x1068, symBinAddr: 0x10000577C, symSize: 0x1C }
  - { offset: 0x9FF9, size: 0x8, addend: 0x0, symName: __ZNSt15__uniq_ptr_implI6NumeroSt14default_deleteIS0_EE6_M_ptrEv, symObjAddr: 0x104C, symBinAddr: 0x100005760, symSize: 0x1C }
  - { offset: 0xA021, size: 0x8, addend: 0x0, symName: __ZNKSt10unique_ptrI6EnteroSt14default_deleteIS0_EE3getEv, symObjAddr: 0x1030, symBinAddr: 0x100005744, symSize: 0x1C }
  - { offset: 0xA049, size: 0x8, addend: 0x0, symName: __ZNKSt14default_deleteI6EnteroEclEPS0_, symObjAddr: 0x1000, symBinAddr: 0x100005714, symSize: 0x30 }
  - { offset: 0xA082, size: 0x8, addend: 0x0, symName: __ZSt4moveIRP6EnteroEONSt16remove_referenceIT_E4typeEOS4_, symObjAddr: 0xFEC, symBinAddr: 0x100005700, symSize: 0x14 }
  - { offset: 0xA0B6, size: 0x8, addend: 0x0, symName: __ZNSt10unique_ptrI6EnteroSt14default_deleteIS0_EE11get_deleterEv, symObjAddr: 0xFD0, symBinAddr: 0x1000056E4, symSize: 0x1C }
  - { offset: 0xA0DE, size: 0x8, addend: 0x0, symName: __ZNSt15__uniq_ptr_implI6EnteroSt14default_deleteIS0_EE6_M_ptrEv, symObjAddr: 0xFB4, symBinAddr: 0x1000056C8, symSize: 0x1C }
  - { offset: 0xA134, size: 0x8, addend: 0x0, symName: __ZNSt10unique_ptrI6EnteroSt14default_deleteIS0_EEC1IS2_vEEPS0_, symObjAddr: 0xF8C, symBinAddr: 0x1000056A0, symSize: 0x28 }
  - { offset: 0xA189, size: 0x8, addend: 0x0, symName: __ZNSt15__uniq_ptr_dataI6EnteroSt14default_deleteIS0_ELb1ELb1EECI1St15__uniq_ptr_implIS0_S2_EEPS0_, symObjAddr: 0xF64, symBinAddr: 0x100005678, symSize: 0x28 }
  - { offset: 0xA1B5, size: 0x8, addend: 0x0, symName: __ZNKSt10unique_ptrI8ComplejoSt14default_deleteIS0_EEdeEv, symObjAddr: 0xF0C, symBinAddr: 0x100005620, symSize: 0x58 }
  - { offset: 0xA1F6, size: 0x8, addend: 0x0, symName: __ZNKSt10unique_ptrI8ComplejoSt14default_deleteIS0_EEptEv, symObjAddr: 0xEF0, symBinAddr: 0x100005604, symSize: 0x1C }
  - { offset: 0xA24E, size: 0x8, addend: 0x0, symName: __ZNSt10unique_ptrI8ComplejoSt14default_deleteIS0_EED1Ev, symObjAddr: 0xE88, symBinAddr: 0x10000559C, symSize: 0x68 }
  - { offset: 0xA2A1, size: 0x8, addend: 0x0, symName: __ZSt11make_uniqueI8ComplejoJiiEENSt8__detail9_MakeUniqIT_E15__single_objectEDpOT0_, symObjAddr: 0xDDC, symBinAddr: 0x1000054F0, symSize: 0xAC }
  - { offset: 0xA2F1, size: 0x8, addend: 0x0, symName: __ZSt7forwardIiEOT_RNSt16remove_referenceIS0_E4typeE, symObjAddr: 0xDC8, symBinAddr: 0x1000054DC, symSize: 0x14 }
  - { offset: 0xA325, size: 0x8, addend: 0x0, symName: __ZNKSt10unique_ptrI4RealSt14default_deleteIS0_EEdeEv, symObjAddr: 0xD70, symBinAddr: 0x100005484, symSize: 0x58 }
  - { offset: 0xA366, size: 0x8, addend: 0x0, symName: __ZNKSt10unique_ptrI4RealSt14default_deleteIS0_EEptEv, symObjAddr: 0xD54, symBinAddr: 0x100005468, symSize: 0x1C }
  - { offset: 0xA3BE, size: 0x8, addend: 0x0, symName: __ZNSt10unique_ptrI4RealSt14default_deleteIS0_EED1Ev, symObjAddr: 0xCEC, symBinAddr: 0x100005400, symSize: 0x68 }
  - { offset: 0xA40B, size: 0x8, addend: 0x0, symName: __ZSt11make_uniqueI4RealJdEENSt8__detail9_MakeUniqIT_E15__single_objectEDpOT0_, symObjAddr: 0xC64, symBinAddr: 0x100005378, symSize: 0x88 }
  - { offset: 0xA44B, size: 0x8, addend: 0x0, symName: __ZNKSt10unique_ptrI6NumeroSt14default_deleteIS0_EEptEv, symObjAddr: 0xC48, symBinAddr: 0x10000535C, symSize: 0x1C }
  - { offset: 0xA4A3, size: 0x8, addend: 0x0, symName: __ZNSt10unique_ptrI6NumeroSt14default_deleteIS0_EED1Ev, symObjAddr: 0xBE0, symBinAddr: 0x1000052F4, symSize: 0x68 }
  - { offset: 0xA4F4, size: 0x8, addend: 0x0, symName: __ZNKSt10unique_ptrI6EnteroSt14default_deleteIS0_EEdeEv, symObjAddr: 0xB88, symBinAddr: 0x10000529C, symSize: 0x58 }
  - { offset: 0xA535, size: 0x8, addend: 0x0, symName: __ZNKSt10unique_ptrI6EnteroSt14default_deleteIS0_EEptEv, symObjAddr: 0xB6C, symBinAddr: 0x100005280, symSize: 0x1C }
  - { offset: 0xA58D, size: 0x8, addend: 0x0, symName: __ZNSt10unique_ptrI6EnteroSt14default_deleteIS0_EED1Ev, symObjAddr: 0xB04, symBinAddr: 0x100005218, symSize: 0x68 }
  - { offset: 0xA5DA, size: 0x8, addend: 0x0, symName: __ZSt11make_uniqueI6EnteroJiEENSt8__detail9_MakeUniqIT_E15__single_objectEDpOT0_, symObjAddr: 0xA7C, symBinAddr: 0x100005190, symSize: 0x88 }
  - { offset: 0xA61E, size: 0x8, addend: 0x0, symName: _main, symObjAddr: 0x0, symBinAddr: 0x100004714, symSize: 0xA7C }
  - { offset: 0x1052F, size: 0x8, addend: 0x0, symName: __ZStL8__ioinit, symObjAddr: 0x3376E, symBinAddr: 0x100010001, symSize: 0x0 }
  - { offset: 0x10F3F, size: 0x8, addend: 0x0, symName: __ZNSt14default_deleteI6NumeroEC1I8ComplejovEERKS_IT_E, symObjAddr: 0x2744, symBinAddr: 0x100008010, symSize: 0x18 }
  - { offset: 0x10F9A, size: 0x8, addend: 0x0, symName: __ZNSt14default_deleteI6NumeroEC1I4RealvEERKS_IT_E, symObjAddr: 0x2704, symBinAddr: 0x100007FF8, symSize: 0x18 }
  - { offset: 0x10FF5, size: 0x8, addend: 0x0, symName: __ZNSt14default_deleteI6NumeroEC1I6EnterovEERKS_IT_E, symObjAddr: 0x26C4, symBinAddr: 0x100007FE0, symSize: 0x18 }
  - { offset: 0x11057, size: 0x8, addend: 0x0, symName: __ZNSt10_Head_baseILm1ESt14default_deleteI6NumeroELb1EEC2IS0_I8ComplejoEEEOT_, symObjAddr: 0x2660, symBinAddr: 0x100007FA4, symSize: 0x3C }
  - { offset: 0x110B9, size: 0x8, addend: 0x0, symName: __ZNSt10_Head_baseILm1ESt14default_deleteI6NumeroELb1EEC2IS0_I4RealEEEOT_, symObjAddr: 0x25B8, symBinAddr: 0x100007F68, symSize: 0x3C }
  - { offset: 0x1111B, size: 0x8, addend: 0x0, symName: __ZNSt10_Head_baseILm1ESt14default_deleteI6NumeroELb1EEC2IS0_I6EnteroEEEOT_, symObjAddr: 0x2510, symBinAddr: 0x100007F2C, symSize: 0x3C }
  - { offset: 0x1117E, size: 0x8, addend: 0x0, symName: __ZNSt11_Tuple_implILm1EJSt14default_deleteI6NumeroEEEC2IS0_I8ComplejoEEEOT_, symObjAddr: 0x2474, symBinAddr: 0x100007EFC, symSize: 0x30 }
  - { offset: 0x111E1, size: 0x8, addend: 0x0, symName: __ZNSt11_Tuple_implILm1EJSt14default_deleteI6NumeroEEEC2IS0_I4RealEEEOT_, symObjAddr: 0x23E4, symBinAddr: 0x100007ECC, symSize: 0x30 }
  - { offset: 0x11243, size: 0x8, addend: 0x0, symName: __ZNSt10_Head_baseILm0EP6NumeroLb0EEC2IRS1_EEOT_, symObjAddr: 0x2354, symBinAddr: 0x100007E9C, symSize: 0x30 }
  - { offset: 0x112A6, size: 0x8, addend: 0x0, symName: __ZNSt11_Tuple_implILm1EJSt14default_deleteI6NumeroEEEC2IS0_I6EnteroEEEOT_, symObjAddr: 0x2324, symBinAddr: 0x100007E6C, symSize: 0x30 }
  - { offset: 0x1134E, size: 0x8, addend: 0x0, symName: __ZNSt11_Tuple_implILm0EJP6NumeroSt14default_deleteIS0_EEEC2IRS1_JS2_I8ComplejoEEvEEOT_DpOT0_, symObjAddr: 0x2270, symBinAddr: 0x100007E18, symSize: 0x54 }
  - { offset: 0x113E2, size: 0x8, addend: 0x0, symName: __ZNSt11_Tuple_implILm0EJP6NumeroSt14default_deleteIS0_EEEC2IRS1_JS2_I4RealEEvEEOT_DpOT0_, symObjAddr: 0x21C4, symBinAddr: 0x100007DC4, symSize: 0x54 }
  - { offset: 0x11476, size: 0x8, addend: 0x0, symName: __ZNSt11_Tuple_implILm0EJP6NumeroSt14default_deleteIS0_EEEC2IRS1_JS2_I6EnteroEEvEEOT_DpOT0_, symObjAddr: 0x2118, symBinAddr: 0x100007D70, symSize: 0x54 }
  - { offset: 0x114C7, size: 0x8, addend: 0x0, symName: __ZSt7forwardIRP6NumeroEOT_RNSt16remove_referenceIS3_E4typeE, symObjAddr: 0x2104, symBinAddr: 0x100007D5C, symSize: 0x14 }
  - { offset: 0x11568, size: 0x8, addend: 0x0, symName: __ZNSt5tupleIJP6NumeroSt14default_deleteIS0_EEEC1IRS1_S2_I8ComplejoELb1EEEOT_OT0_, symObjAddr: 0x205C, symBinAddr: 0x100007D0C, symSize: 0x50 }
  - { offset: 0x115AE, size: 0x8, addend: 0x0, symName: __ZNSt15__uniq_ptr_implI8ComplejoSt14default_deleteIS0_EE7releaseEv, symObjAddr: 0x2028, symBinAddr: 0x100007CD8, symSize: 0x34 }
  - { offset: 0x1162A, size: 0x8, addend: 0x0, symName: __ZNSt5tupleIJP6NumeroSt14default_deleteIS0_EEEC1IRS1_S2_I4RealELb1EEEOT_OT0_, symObjAddr: 0x1F64, symBinAddr: 0x100007C88, symSize: 0x50 }
  - { offset: 0x11670, size: 0x8, addend: 0x0, symName: __ZNSt15__uniq_ptr_implI4RealSt14default_deleteIS0_EE7releaseEv, symObjAddr: 0x1F30, symBinAddr: 0x100007C54, symSize: 0x34 }
  - { offset: 0x116EC, size: 0x8, addend: 0x0, symName: __ZNSt5tupleIJP6NumeroSt14default_deleteIS0_EEEC1IRS1_S2_I6EnteroELb1EEEOT_OT0_, symObjAddr: 0x1E6C, symBinAddr: 0x100007C04, symSize: 0x50 }
  - { offset: 0x11732, size: 0x8, addend: 0x0, symName: __ZNSt15__uniq_ptr_implI6EnteroSt14default_deleteIS0_EE7releaseEv, symObjAddr: 0x1E38, symBinAddr: 0x100007BD0, symSize: 0x34 }
  - { offset: 0x1176A, size: 0x8, addend: 0x0, symName: __ZNSt7__cxx1112basic_stringIcSt11char_traitsIcESaIcEE12_M_constructIPcEEvT_S7_St20forward_iterator_tag, symObjAddr: 0x1CC4, symBinAddr: 0x100007AD0, symSize: 0x100 }
  - { offset: 0x1186A, size: 0x8, addend: 0x0, symName: __ZZNSt7__cxx1112basic_stringIcSt11char_traitsIcESaIcEE12_M_constructIPcEEvT_S7_St20forward_iterator_tagEN6_GuardC1EPS4_, symObjAddr: 0x1C6C, symBinAddr: 0x100007A78, symSize: 0x24 }
  - { offset: 0x1189A, size: 0x8, addend: 0x0, symName: __ZZNSt7__cxx1112basic_stringIcSt11char_traitsIcESaIcEE12_M_constructIPcEEvT_S7_St20forward_iterator_tagEN6_GuardD1Ev, symObjAddr: 0x1C90, symBinAddr: 0x100007A9C, symSize: 0x34 }
  - { offset: 0x119BD, size: 0x8, addend: 0x0, symName: __ZNSt15__uniq_ptr_implI6NumeroSt14default_deleteIS0_EEC2IS1_I8ComplejoEEEPS0_OT_, symObjAddr: 0x1C20, symBinAddr: 0x100007A2C, symSize: 0x4C }
  - { offset: 0x119FC, size: 0x8, addend: 0x0, symName: __ZSt7forwardISt14default_deleteI8ComplejoEEOT_RNSt16remove_referenceIS3_E4typeE, symObjAddr: 0x1C0C, symBinAddr: 0x100007A18, symSize: 0x14 }
  - { offset: 0x11A30, size: 0x8, addend: 0x0, symName: __ZNSt10unique_ptrI8ComplejoSt14default_deleteIS0_EE7releaseEv, symObjAddr: 0x1BF0, symBinAddr: 0x1000079FC, symSize: 0x1C }
  - { offset: 0x11A5A, size: 0x8, addend: 0x0, symName: __ZSt7forwardIRdEOT_RNSt16remove_referenceIS1_E4typeE, symObjAddr: 0x1B10, symBinAddr: 0x1000079E8, symSize: 0x14 }
  - { offset: 0x11AC7, size: 0x8, addend: 0x0, symName: __ZNSt15__uniq_ptr_implI6NumeroSt14default_deleteIS0_EEC2IS1_I4RealEEEPS0_OT_, symObjAddr: 0x1AC4, symBinAddr: 0x10000799C, symSize: 0x4C }
  - { offset: 0x11B06, size: 0x8, addend: 0x0, symName: __ZSt7forwardISt14default_deleteI4RealEEOT_RNSt16remove_referenceIS3_E4typeE, symObjAddr: 0x1AB0, symBinAddr: 0x100007988, symSize: 0x14 }
  - { offset: 0x11B3A, size: 0x8, addend: 0x0, symName: __ZNSt10unique_ptrI4RealSt14default_deleteIS0_EE7releaseEv, symObjAddr: 0x1A94, symBinAddr: 0x10000796C, symSize: 0x1C }
  - { offset: 0x11B9B, size: 0x8, addend: 0x0, symName: __ZNSt15__uniq_ptr_implI6NumeroSt14default_deleteIS0_EEC2IS1_I6EnteroEEEPS0_OT_, symObjAddr: 0x1968, symBinAddr: 0x100007920, symSize: 0x4C }
  - { offset: 0x11BDA, size: 0x8, addend: 0x0, symName: __ZSt7forwardISt14default_deleteI6EnteroEEOT_RNSt16remove_referenceIS3_E4typeE, symObjAddr: 0x1954, symBinAddr: 0x10000790C, symSize: 0x14 }
  - { offset: 0x11C0E, size: 0x8, addend: 0x0, symName: __ZNSt10unique_ptrI6EnteroSt14default_deleteIS0_EE7releaseEv, symObjAddr: 0x1938, symBinAddr: 0x1000078F0, symSize: 0x1C }
  - { offset: 0x11C38, size: 0x8, addend: 0x0, symName: __ZSt4moveIRNSt7__cxx1112basic_stringIcSt11char_traitsIcESaIcEEEEONSt16remove_referenceIT_E4typeEOS8_, symObjAddr: 0x1844, symBinAddr: 0x1000078DC, symSize: 0x14 }
  - { offset: 0x11C8D, size: 0x8, addend: 0x0, symName: __ZNSt15__new_allocatorIcED2Ev, symObjAddr: 0x1830, symBinAddr: 0x1000078C8, symSize: 0x14 }
  - { offset: 0x11D0D, size: 0x8, addend: 0x0, symName: __ZNSt7__cxx1112basic_stringIcSt11char_traitsIcESaIcEEC1IPcvEET_S7_RKS3_, symObjAddr: 0x17B0, symBinAddr: 0x100007848, symSize: 0x80 }
  - { offset: 0x11D75, size: 0x8, addend: 0x0, symName: __ZSt4moveIRZNSt7__cxx119to_stringEiEUlPcmE_EONSt16remove_referenceIT_E4typeEOS5_, symObjAddr: 0x179C, symBinAddr: 0x100007834, symSize: 0x14 }
  - { offset: 0x11DB9, size: 0x8, addend: 0x0, symName: __ZStplIcSt11char_traitsIcESaIcEENSt7__cxx1112basic_stringIT_T0_T1_EEOS8_S9_, symObjAddr: 0x16B4, symBinAddr: 0x10000774C, symSize: 0xE8 }
  - { offset: 0x11E41, size: 0x8, addend: 0x0, symName: __ZStplIcSt11char_traitsIcESaIcEENSt7__cxx1112basic_stringIT_T0_T1_EEOS8_PKS5_, symObjAddr: 0x1670, symBinAddr: 0x100007708, symSize: 0x44 }
  - { offset: 0x11ECF, size: 0x8, addend: 0x0, symName: __ZNSt10unique_ptrI6NumeroSt14default_deleteIS0_EEC1I8ComplejoS1_IS5_EvEEOS_IT_T0_E, symObjAddr: 0x1620, symBinAddr: 0x1000076B8, symSize: 0x50 }
  - { offset: 0x11F3B, size: 0x8, addend: 0x0, symName: __ZNSt15__uniq_ptr_dataI6NumeroSt14default_deleteIS0_ELb1ELb1EECI1St15__uniq_ptr_implIS0_S2_EIS1_I8ComplejoEEEPS0_OT_, symObjAddr: 0x15F0, symBinAddr: 0x100007688, symSize: 0x30 }
  - { offset: 0x11F74, size: 0x8, addend: 0x0, symName: __ZSt11make_uniqueI8ComplejoJddEENSt8__detail9_MakeUniqIT_E15__single_objectEDpOT0_, symObjAddr: 0x1518, symBinAddr: 0x100007618, symSize: 0x70 }
  - { offset: 0x12006, size: 0x8, addend: 0x0, symName: __ZNSt4pairIddEC1IRdS2_Lb1EEEOT_OT0_, symObjAddr: 0x14D0, symBinAddr: 0x1000075D0, symSize: 0x48 }
  - { offset: 0x12083, size: 0x8, addend: 0x0, symName: __ZNSt10unique_ptrI6NumeroSt14default_deleteIS0_EEC1I4RealS1_IS5_EvEEOS_IT_T0_E, symObjAddr: 0x1480, symBinAddr: 0x100007580, symSize: 0x50 }
  - { offset: 0x120EF, size: 0x8, addend: 0x0, symName: __ZNSt15__uniq_ptr_dataI6NumeroSt14default_deleteIS0_ELb1ELb1EECI1St15__uniq_ptr_implIS0_S2_EIS1_I4RealEEEPS0_OT_, symObjAddr: 0x1450, symBinAddr: 0x100007550, symSize: 0x30 }
  - { offset: 0x12163, size: 0x8, addend: 0x0, symName: __ZNSt10unique_ptrI6NumeroSt14default_deleteIS0_EEC1I6EnteroS1_IS5_EvEEOS_IT_T0_E, symObjAddr: 0x1344, symBinAddr: 0x100007500, symSize: 0x50 }
  - { offset: 0x121CF, size: 0x8, addend: 0x0, symName: __ZNSt15__uniq_ptr_dataI6NumeroSt14default_deleteIS0_ELb1ELb1EECI1St15__uniq_ptr_implIS0_S2_EIS1_I6EnteroEEEPS0_OT_, symObjAddr: 0x1314, symBinAddr: 0x1000074D0, symSize: 0x30 }
  - { offset: 0x12259, size: 0x8, addend: 0x0, symName: __ZN9__gnu_cxx12__to_xstringINSt7__cxx1112basic_stringIcSt11char_traitsIcESaIcEEEcEET_PFiPT0_mPKS8_PcEmSB_z, symObjAddr: 0x1178, symBinAddr: 0x1000073F0, symSize: 0xE0 }
  - { offset: 0x12368, size: 0x8, addend: 0x0, symName: __ZNSt7__cxx1112basic_stringIcSt11char_traitsIcESaIcEE22__resize_and_overwriteIZNS_9to_stringEiEUlPcmE_EEvmT_, symObjAddr: 0x10E8, symBinAddr: 0x100007360, symSize: 0x90 }
  - { offset: 0x1245A, size: 0x8, addend: 0x0, symName: __ZZNSt7__cxx1112basic_stringIcSt11char_traitsIcESaIcEE22__resize_and_overwriteIZNS_9to_stringEiEUlPcmE_EEvmT_EN11_TerminatorD1Ev, symObjAddr: 0x10B4, symBinAddr: 0x10000732C, symSize: 0x34 }
  - { offset: 0x1249E, size: 0x8, addend: 0x0, symName: __ZNSt8__detail18__to_chars_10_implIjEEvPcjT_, symObjAddr: 0xF00, symBinAddr: 0x100007178, symSize: 0x1B4 }
  - { offset: 0x1258A, size: 0x8, addend: 0x0, symName: __ZNSt7__cxx1112basic_stringIcSt11char_traitsIcESaIcEE12_Alloc_hiderD1Ev, symObjAddr: 0xED4, symBinAddr: 0x10000714C, symSize: 0x2C }
  - { offset: 0x125D0, size: 0x8, addend: 0x0, symName: __ZNK8Complejo9to_stringB5cxx11Ev, symObjAddr: 0xDCC, symBinAddr: 0x100007044, symSize: 0x108 }
  - { offset: 0x125F9, size: 0x8, addend: 0x0, symName: __ZNK8ComplejomlERK6Numero, symObjAddr: 0xC7C, symBinAddr: 0x100006EF4, symSize: 0x150 }
  - { offset: 0x12682, size: 0x8, addend: 0x0, symName: __ZNK8ComplejomiERK6Numero, symObjAddr: 0xB4C, symBinAddr: 0x100006DC4, symSize: 0x130 }
  - { offset: 0x1270B, size: 0x8, addend: 0x0, symName: __ZNK8ComplejoplERK6Numero, symObjAddr: 0xA1C, symBinAddr: 0x100006C94, symSize: 0x130 }
  - { offset: 0x127C4, size: 0x8, addend: 0x0, symName: __ZN8ComplejoC1Edd, symObjAddr: 0x9D0, symBinAddr: 0x100006C48, symSize: 0x4C }
  - { offset: 0x127FC, size: 0x8, addend: 0x0, symName: __ZN8ComplejoC2Edd, symObjAddr: 0x984, symBinAddr: 0x100006BFC, symSize: 0x4C }
  - { offset: 0x12830, size: 0x8, addend: 0x0, symName: __ZNK4Real9to_stringB5cxx11Ev, symObjAddr: 0x94C, symBinAddr: 0x100006BC4, symSize: 0x38 }
  - { offset: 0x12858, size: 0x8, addend: 0x0, symName: __ZNK4RealmlERK6Numero, symObjAddr: 0x858, symBinAddr: 0x100006AD0, symSize: 0xF4 }
  - { offset: 0x1289F, size: 0x8, addend: 0x0, symName: __ZNK4RealmiERK6Numero, symObjAddr: 0x764, symBinAddr: 0x1000069DC, symSize: 0xF4 }
  - { offset: 0x128E6, size: 0x8, addend: 0x0, symName: __ZNK4RealplERK6Numero, symObjAddr: 0x670, symBinAddr: 0x1000068E8, symSize: 0xF4 }
  - { offset: 0x12951, size: 0x8, addend: 0x0, symName: __ZN4RealC1Ed, symObjAddr: 0x630, symBinAddr: 0x1000068A8, symSize: 0x40 }
  - { offset: 0x12981, size: 0x8, addend: 0x0, symName: __ZN4RealC2Ed, symObjAddr: 0x5F0, symBinAddr: 0x100006868, symSize: 0x40 }
  - { offset: 0x129AD, size: 0x8, addend: 0x0, symName: __ZNK6Entero9to_stringB5cxx11Ev, symObjAddr: 0x5BC, symBinAddr: 0x100006834, symSize: 0x34 }
  - { offset: 0x129D5, size: 0x8, addend: 0x0, symName: __ZNK6EnteromlERK6Numero, symObjAddr: 0x4C8, symBinAddr: 0x100006740, symSize: 0xF4 }
  - { offset: 0x12A1C, size: 0x8, addend: 0x0, symName: __ZNK6EnteromiERK6Numero, symObjAddr: 0x3D4, symBinAddr: 0x10000664C, symSize: 0xF4 }
  - { offset: 0x12A63, size: 0x8, addend: 0x0, symName: __ZNK6EnteroplERK6Numero, symObjAddr: 0x2E0, symBinAddr: 0x100006558, symSize: 0xF4 }
  - { offset: 0x12ACE, size: 0x8, addend: 0x0, symName: __ZN6EnteroC1Ei, symObjAddr: 0x2A0, symBinAddr: 0x100006518, symSize: 0x40 }
  - { offset: 0x12AFE, size: 0x8, addend: 0x0, symName: __ZN6EnteroC2Ei, symObjAddr: 0x260, symBinAddr: 0x1000064D8, symSize: 0x40 }
  - { offset: 0x12B45, size: 0x8, addend: 0x0, symName: __ZN6NumeroC2Ev, symObjAddr: 0x238, symBinAddr: 0x1000064B0, symSize: 0x28 }
  - { offset: 0x12B65, size: 0x8, addend: 0x0, symName: __ZNSt7__cxx119to_stringEd, symObjAddr: 0x1E0, symBinAddr: 0x100006458, symSize: 0x58 }
  - { offset: 0x12B9E, size: 0x8, addend: 0x0, symName: __ZNSt8__detail14__to_chars_lenIjEEjT_i, symObjAddr: 0x108, symBinAddr: 0x100006380, symSize: 0xD8 }
  - { offset: 0x12C1D, size: 0x8, addend: 0x0, symName: __ZNSt7__cxx119to_stringEi, symObjAddr: 0x5C, symBinAddr: 0x1000062D4, symSize: 0xAC }
  - { offset: 0x12CB4, size: 0x8, addend: 0x0, symName: __ZZNSt7__cxx119to_stringEiENKUlPcmE_clES0_m, symObjAddr: 0x0, symBinAddr: 0x100006278, symSize: 0x5C }
...
