---
triple:          'arm64-apple-darwin'
binary-path:     banco_exec
relocations:
  - { offset: 0x72CD, size: 0x8, addend: 0x0, symName: __ZStL8__ioinit, symObjAddr: 0x2B12C, symBinAddr: 0x10000C000, symSize: 0x0 }
  - { offset: 0x7A35, size: 0x8, addend: 0x0, symName: __ZSt8_DestroyI14Caja_de_ahorroEvPT_, symObjAddr: 0x18B4, symBinAddr: 0x100005550, symSize: 0x20 }
  - { offset: 0x7A92, size: 0x8, addend: 0x0, symName: __ZN14Caja_de_ahorroD1Ev, symObjAddr: 0x1880, symBinAddr: 0x10000551C, symSize: 0x34 }
  - { offset: 0x7AB4, size: 0x8, addend: 0x0, symName: __ZNSt14_Sp_ebo_helperILi0ESaIvELb1EE6_S_getERS1_, symObjAddr: 0x186C, symBinAddr: 0x100005508, symSize: 0x14 }
  - { offset: 0x7B06, size: 0x8, addend: 0x0, symName: __ZNSt23_Sp_counted_ptr_inplaceI14Caja_de_ahorroSaIvELN9__gnu_cxx12_Lock_policyE2EE5_Impl8_M_allocEv, symObjAddr: 0x1850, symBinAddr: 0x1000054EC, symSize: 0x1C }
  - { offset: 0x7B34, size: 0x8, addend: 0x0, symName: __ZNSt23_Sp_counted_ptr_inplaceI14Caja_de_ahorroSaIvELN9__gnu_cxx12_Lock_policyE2EE14_M_get_deleterERKSt9type_info, symObjAddr: 0x17D8, symBinAddr: 0x100005474, symSize: 0x78 }
  - { offset: 0x7B80, size: 0x8, addend: 0x0, symName: __ZNSt23_Sp_counted_ptr_inplaceI14Caja_de_ahorroSaIvELN9__gnu_cxx12_Lock_policyE2EE10_M_destroyEv, symObjAddr: 0x1774, symBinAddr: 0x100005410, symSize: 0x64 }
  - { offset: 0x7C3A, size: 0x8, addend: 0x0, symName: __ZNSt23_Sp_counted_ptr_inplaceI14Caja_de_ahorroSaIvELN9__gnu_cxx12_Lock_policyE2EE10_M_disposeEv, symObjAddr: 0x1728, symBinAddr: 0x1000053C4, symSize: 0x4C }
  - { offset: 0x7CB5, size: 0x8, addend: 0x0, symName: __ZNSt23_Sp_counted_ptr_inplaceI14Caja_de_ahorroSaIvELN9__gnu_cxx12_Lock_policyE2EED0Ev, symObjAddr: 0x1700, symBinAddr: 0x10000539C, symSize: 0x28 }
  - { offset: 0x7CDF, size: 0x8, addend: 0x0, symName: __ZNSt23_Sp_counted_ptr_inplaceI14Caja_de_ahorroSaIvELN9__gnu_cxx12_Lock_policyE2EED1Ev, symObjAddr: 0x16CC, symBinAddr: 0x100005368, symSize: 0x34 }
  - { offset: 0x7D01, size: 0x8, addend: 0x0, symName: __ZNSt10_Head_baseILm0EP16Cuenta_corrienteLb0EE7_M_headERKS2_, symObjAddr: 0x16B8, symBinAddr: 0x100005354, symSize: 0x14 }
  - { offset: 0x7D2A, size: 0x8, addend: 0x0, symName: __ZNSt10_Head_baseILm1ESt14default_deleteI16Cuenta_corrienteELb1EE7_M_headERS3_, symObjAddr: 0x16A4, symBinAddr: 0x100005340, symSize: 0x14 }
  - { offset: 0x7D71, size: 0x8, addend: 0x0, symName: __ZNSt10_Head_baseILm1ESt14default_deleteI16Cuenta_corrienteELb1EEC2Ev, symObjAddr: 0x1690, symBinAddr: 0x10000532C, symSize: 0x14 }
  - { offset: 0x7D9B, size: 0x8, addend: 0x0, symName: __ZN9__gnu_cxx16__aligned_bufferI14Caja_de_ahorroE7_M_addrEv, symObjAddr: 0x167C, symBinAddr: 0x100005318, symSize: 0x14 }
  - { offset: 0x7DC7, size: 0x8, addend: 0x0, symName: __ZSt10_ConstructI14Caja_de_ahorroJRNSt7__cxx1112basic_stringIcSt11char_traitsIcESaIcEEEdEEvPT_DpOT0_, symObjAddr: 0x15C4, symBinAddr: 0x100005260, symSize: 0xB8 }
  - { offset: 0x7E4D, size: 0x8, addend: 0x0, symName: __ZNSt14_Sp_ebo_helperILi0ESaIvELb1EEC2ERKS0_, symObjAddr: 0x15AC, symBinAddr: 0x100005248, symSize: 0x18 }
  - { offset: 0x7E7C, size: 0x8, addend: 0x0, symName: __ZNSt15__new_allocatorISt23_Sp_counted_ptr_inplaceI14Caja_de_ahorroSaIvELN9__gnu_cxx12_Lock_policyE2EEE10deallocateEPS5_m, symObjAddr: 0x1570, symBinAddr: 0x10000520C, symSize: 0x3C }
  - { offset: 0x7EC2, size: 0x8, addend: 0x0, symName: __ZSt11__addressofISaISt23_Sp_counted_ptr_inplaceI14Caja_de_ahorroSaIvELN9__gnu_cxx12_Lock_policyE2EEEEPT_RS7_, symObjAddr: 0x155C, symBinAddr: 0x1000051F8, symSize: 0x14 }
  - { offset: 0x7EF8, size: 0x8, addend: 0x0, symName: __ZNSt15__new_allocatorISt23_Sp_counted_ptr_inplaceI14Caja_de_ahorroSaIvELN9__gnu_cxx12_Lock_policyE2EEE8allocateEmPKv, symObjAddr: 0x14C4, symBinAddr: 0x100005160, symSize: 0x98 }
  - { offset: 0x7F80, size: 0x8, addend: 0x0, symName: __ZNSt11_Tuple_implILm0EJP16Cuenta_corrienteSt14default_deleteIS0_EEE7_M_headERKS4_, symObjAddr: 0x14A8, symBinAddr: 0x100005144, symSize: 0x1C }
  - { offset: 0x7FAA, size: 0x8, addend: 0x0, symName: __ZNSt11_Tuple_implILm1EJSt14default_deleteI16Cuenta_corrienteEEE7_M_headERS3_, symObjAddr: 0x148C, symBinAddr: 0x100005128, symSize: 0x1C }
  - { offset: 0x7FD4, size: 0x8, addend: 0x0, symName: __ZNSt10_Head_baseILm0EP16Cuenta_corrienteLb0EE7_M_headERS2_, symObjAddr: 0x1478, symBinAddr: 0x100005114, symSize: 0x14 }
  - { offset: 0x801B, size: 0x8, addend: 0x0, symName: __ZNSt10_Head_baseILm0EP16Cuenta_corrienteLb0EEC2Ev, symObjAddr: 0x145C, symBinAddr: 0x1000050F8, symSize: 0x1C }
  - { offset: 0x805B, size: 0x8, addend: 0x0, symName: __ZNSt11_Tuple_implILm1EJSt14default_deleteI16Cuenta_corrienteEEEC2Ev, symObjAddr: 0x143C, symBinAddr: 0x1000050D8, symSize: 0x20 }
  - { offset: 0x8081, size: 0x8, addend: 0x0, symName: __ZN9__gnu_cxx16__aligned_bufferI14Caja_de_ahorroE6_M_ptrEv, symObjAddr: 0x1420, symBinAddr: 0x1000050BC, symSize: 0x1C }
  - { offset: 0x8118, size: 0x8, addend: 0x0, symName: __ZNSt23_Sp_counted_ptr_inplaceI14Caja_de_ahorroSaIvELN9__gnu_cxx12_Lock_policyE2EE5_ImplC1ES1_, symObjAddr: 0x13F4, symBinAddr: 0x100005090, symSize: 0x2C }
  - { offset: 0x8161, size: 0x8, addend: 0x0, symName: __ZNSt16_Sp_counted_baseILN9__gnu_cxx12_Lock_policyE2EEC2Ev, symObjAddr: 0x13B4, symBinAddr: 0x100005050, symSize: 0x40 }
  - { offset: 0x8183, size: 0x8, addend: 0x0, symName: __ZSt12__to_addressISt23_Sp_counted_ptr_inplaceI14Caja_de_ahorroSaIvELN9__gnu_cxx12_Lock_policyE2EEEPT_S7_, symObjAddr: 0x13A0, symBinAddr: 0x10000503C, symSize: 0x14 }
  - { offset: 0x821F, size: 0x8, addend: 0x0, symName: __ZNSt15__allocated_ptrISaISt23_Sp_counted_ptr_inplaceI14Caja_de_ahorroSaIvELN9__gnu_cxx12_Lock_policyE2EEEEC1ERS6_PS5_, symObjAddr: 0x1360, symBinAddr: 0x100004FFC, symSize: 0x40 }
  - { offset: 0x829F, size: 0x8, addend: 0x0, symName: __ZNSt15__new_allocatorISt23_Sp_counted_ptr_inplaceI14Caja_de_ahorroSaIvELN9__gnu_cxx12_Lock_policyE2EEED2Ev, symObjAddr: 0x134C, symBinAddr: 0x100004FE8, symSize: 0x14 }
  - { offset: 0x82D7, size: 0x8, addend: 0x0, symName: __ZSt12__get_helperILm0EP16Cuenta_corrienteJSt14default_deleteIS0_EEERKT0_RKSt11_Tuple_implIXT_EJS4_DpT1_EE, symObjAddr: 0x1330, symBinAddr: 0x100004FCC, symSize: 0x1C }
  - { offset: 0x831F, size: 0x8, addend: 0x0, symName: __ZSt12__get_helperILm1ESt14default_deleteI16Cuenta_corrienteEJEERT0_RSt11_Tuple_implIXT_EJS3_DpT1_EE, symObjAddr: 0x1314, symBinAddr: 0x100004FB0, symSize: 0x1C }
  - { offset: 0x8361, size: 0x8, addend: 0x0, symName: __ZNSt11_Tuple_implILm0EJP16Cuenta_corrienteSt14default_deleteIS0_EEE7_M_headERS4_, symObjAddr: 0x12F8, symBinAddr: 0x100004F94, symSize: 0x1C }
  - { offset: 0x83A9, size: 0x8, addend: 0x0, symName: __ZNSt11_Tuple_implILm0EJP16Cuenta_corrienteSt14default_deleteIS0_EEEC2Ev, symObjAddr: 0x12D0, symBinAddr: 0x100004F6C, symSize: 0x28 }
  - { offset: 0x83CF, size: 0x8, addend: 0x0, symName: __ZNSt23_Sp_counted_ptr_inplaceI14Caja_de_ahorroSaIvELN9__gnu_cxx12_Lock_policyE2EE6_M_ptrEv, symObjAddr: 0x12B0, symBinAddr: 0x100004F4C, symSize: 0x20 }
  - { offset: 0x83F9, size: 0x8, addend: 0x0, symName: __ZNSt15__allocated_ptrISaISt23_Sp_counted_ptr_inplaceI14Caja_de_ahorroSaIvELN9__gnu_cxx12_Lock_policyE2EEEEaSEDn, symObjAddr: 0x1290, symBinAddr: 0x100004F2C, symSize: 0x20 }
  - { offset: 0x8475, size: 0x8, addend: 0x0, symName: __ZNSt23_Sp_counted_ptr_inplaceI14Caja_de_ahorroSaIvELN9__gnu_cxx12_Lock_policyE2EEC1IJRNSt7__cxx1112basic_stringIcSt11char_traitsIcESaIcEEEdEEES1_DpOT_, symObjAddr: 0x11D0, symBinAddr: 0x100004E6C, symSize: 0xC0 }
  - { offset: 0x8509, size: 0x8, addend: 0x0, symName: __ZNSt15__allocated_ptrISaISt23_Sp_counted_ptr_inplaceI14Caja_de_ahorroSaIvELN9__gnu_cxx12_Lock_policyE2EEEE3getEv, symObjAddr: 0x11B0, symBinAddr: 0x100004E4C, symSize: 0x20 }
  - { offset: 0x8557, size: 0x8, addend: 0x0, symName: __ZNSt15__allocated_ptrISaISt23_Sp_counted_ptr_inplaceI14Caja_de_ahorroSaIvELN9__gnu_cxx12_Lock_policyE2EEEED1Ev, symObjAddr: 0x1154, symBinAddr: 0x100004DF0, symSize: 0x5C }
  - { offset: 0x85AE, size: 0x8, addend: 0x0, symName: __ZSt18__allocate_guardedISaISt23_Sp_counted_ptr_inplaceI14Caja_de_ahorroSaIvELN9__gnu_cxx12_Lock_policyE2EEEESt15__allocated_ptrIT_ERS8_, symObjAddr: 0x10FC, symBinAddr: 0x100004D98, symSize: 0x58 }
  - { offset: 0x8652, size: 0x8, addend: 0x0, symName: __ZSt3getILm0EJP16Cuenta_corrienteSt14default_deleteIS0_EEERKNSt13tuple_elementIXT_ESt5tupleIJDpT0_EEE4typeERKS8_, symObjAddr: 0x10E0, symBinAddr: 0x100004D7C, symSize: 0x1C }
  - { offset: 0x869C, size: 0x8, addend: 0x0, symName: __ZSt3getILm1EJP16Cuenta_corrienteSt14default_deleteIS0_EEERNSt13tuple_elementIXT_ESt5tupleIJDpT0_EEE4typeERS8_, symObjAddr: 0x10C4, symBinAddr: 0x100004D60, symSize: 0x1C }
  - { offset: 0x86E0, size: 0x8, addend: 0x0, symName: __ZSt12__get_helperILm0EP16Cuenta_corrienteJSt14default_deleteIS0_EEERT0_RSt11_Tuple_implIXT_EJS4_DpT1_EE, symObjAddr: 0x10A8, symBinAddr: 0x100004D44, symSize: 0x1C }
  - { offset: 0x8750, size: 0x8, addend: 0x0, symName: __ZNSt5tupleIJP16Cuenta_corrienteSt14default_deleteIS0_EEEC1ILb1ELb1EEEv, symObjAddr: 0x1088, symBinAddr: 0x100004D24, symSize: 0x20 }
  - { offset: 0x8780, size: 0x8, addend: 0x0, symName: __ZNSt12__shared_ptrI14Caja_de_ahorroLN9__gnu_cxx12_Lock_policyE2EE31_M_enable_shared_from_this_withIS0_S0_EENSt9enable_ifIXntsrNS3_15__has_esft_baseIT0_vEE5valueEvE4typeEPT_, symObjAddr: 0x1070, symBinAddr: 0x100004D0C, symSize: 0x18 }
  - { offset: 0x8882, size: 0x8, addend: 0x0, symName: __ZNSt14__shared_countILN9__gnu_cxx12_Lock_policyE2EEC1I14Caja_de_ahorroSaIvEJRNSt7__cxx1112basic_stringIcSt11char_traitsIcESaIcEEEdEEERPT_St20_Sp_alloc_shared_tagIT0_EDpOT1_, symObjAddr: 0xF34, symBinAddr: 0x100004BD0, symSize: 0x13C }
  - { offset: 0x89D7, size: 0x8, addend: 0x0, symName: __ZNKSt15__uniq_ptr_implI16Cuenta_corrienteSt14default_deleteIS0_EE6_M_ptrEv, symObjAddr: 0xF14, symBinAddr: 0x100004BB0, symSize: 0x20 }
  - { offset: 0x8A01, size: 0x8, addend: 0x0, symName: __ZNKSt12__shared_ptrI14Caja_de_ahorroLN9__gnu_cxx12_Lock_policyE2EE3getEv, symObjAddr: 0xEFC, symBinAddr: 0x100004B98, symSize: 0x18 }
  - { offset: 0x8A2B, size: 0x8, addend: 0x0, symName: __ZNSt15__uniq_ptr_implI16Cuenta_corrienteSt14default_deleteIS0_EE10_M_deleterEv, symObjAddr: 0xEE0, symBinAddr: 0x100004B7C, symSize: 0x1C }
  - { offset: 0x8A57, size: 0x8, addend: 0x0, symName: __ZSt3getILm0EJP16Cuenta_corrienteSt14default_deleteIS0_EEERNSt13tuple_elementIXT_ESt5tupleIJDpT0_EEE4typeERS8_, symObjAddr: 0xEC4, symBinAddr: 0x100004B60, symSize: 0x1C }
  - { offset: 0x8AC6, size: 0x8, addend: 0x0, symName: __ZNSt15__uniq_ptr_implI16Cuenta_corrienteSt14default_deleteIS0_EEC2EPS0_, symObjAddr: 0xE88, symBinAddr: 0x100004B24, symSize: 0x3C }
  - { offset: 0x8AF5, size: 0x8, addend: 0x0, symName: __ZNSt16_Sp_counted_baseILN9__gnu_cxx12_Lock_policyE2EE15_M_add_ref_copyEv, symObjAddr: 0xDF0, symBinAddr: 0x100004A8C, symSize: 0x98 }
  - { offset: 0x8C0E, size: 0x8, addend: 0x0, symName: __ZNSt12__shared_ptrI14Caja_de_ahorroLN9__gnu_cxx12_Lock_policyE2EEC2ISaIvEJRNSt7__cxx1112basic_stringIcSt11char_traitsIcESaIcEEEdEEESt20_Sp_alloc_shared_tagIT_EDpOT0_, symObjAddr: 0xD68, symBinAddr: 0x100004A04, symSize: 0x88 }
  - { offset: 0x8C6F, size: 0x8, addend: 0x0, symName: __ZNKSt10unique_ptrI16Cuenta_corrienteSt14default_deleteIS0_EE3getEv, symObjAddr: 0xD4C, symBinAddr: 0x1000049E8, symSize: 0x1C }
  - { offset: 0x8C99, size: 0x8, addend: 0x0, symName: __ZNKSt19__shared_ptr_accessI14Caja_de_ahorroLN9__gnu_cxx12_Lock_policyE2ELb0ELb0EE6_M_getEv, symObjAddr: 0xD30, symBinAddr: 0x1000049CC, symSize: 0x1C }
  - { offset: 0x8CC3, size: 0x8, addend: 0x0, symName: __ZNKSt14default_deleteI16Cuenta_corrienteEclEPS0_, symObjAddr: 0xCEC, symBinAddr: 0x100004988, symSize: 0x44 }
  - { offset: 0x8D24, size: 0x8, addend: 0x0, symName: __ZN16Cuenta_corrienteD1Ev, symObjAddr: 0xCAC, symBinAddr: 0x100004948, symSize: 0x40 }
  - { offset: 0x8D71, size: 0x8, addend: 0x0, symName: __ZN5BancoD2Ev, symObjAddr: 0xC74, symBinAddr: 0x100004910, symSize: 0x38 }
  - { offset: 0x8D99, size: 0x8, addend: 0x0, symName: __ZSt4moveIRP16Cuenta_corrienteEONSt16remove_referenceIT_E4typeEOS4_, symObjAddr: 0xC60, symBinAddr: 0x1000048FC, symSize: 0x14 }
  - { offset: 0x8DCF, size: 0x8, addend: 0x0, symName: __ZNSt10unique_ptrI16Cuenta_corrienteSt14default_deleteIS0_EE11get_deleterEv, symObjAddr: 0xC44, symBinAddr: 0x1000048E0, symSize: 0x1C }
  - { offset: 0x8DF9, size: 0x8, addend: 0x0, symName: __ZNSt15__uniq_ptr_implI16Cuenta_corrienteSt14default_deleteIS0_EE6_M_ptrEv, symObjAddr: 0xC28, symBinAddr: 0x1000048C4, symSize: 0x1C }
  - { offset: 0x8E54, size: 0x8, addend: 0x0, symName: __ZNSt10unique_ptrI16Cuenta_corrienteSt14default_deleteIS0_EEC1IS2_vEEPS0_, symObjAddr: 0xC00, symBinAddr: 0x10000489C, symSize: 0x28 }
  - { offset: 0x8EAE, size: 0x8, addend: 0x0, symName: __ZNSt15__uniq_ptr_dataI16Cuenta_corrienteSt14default_deleteIS0_ELb1ELb1EECI1St15__uniq_ptr_implIS0_S2_EEPS0_, symObjAddr: 0xBD8, symBinAddr: 0x100004874, symSize: 0x28 }
  - { offset: 0x8F05, size: 0x8, addend: 0x0, symName: __ZNSt14__shared_countILN9__gnu_cxx12_Lock_policyE2EEC1ERKS2_, symObjAddr: 0xB90, symBinAddr: 0x10000482C, symSize: 0x48 }
  - { offset: 0x8F36, size: 0x8, addend: 0x0, symName: __ZSt7forwardIRSt10shared_ptrI14Caja_de_ahorroEEOT_RNSt16remove_referenceIS4_E4typeE, symObjAddr: 0xB7C, symBinAddr: 0x100004818, symSize: 0x14 }
  - { offset: 0x8FBE, size: 0x8, addend: 0x0, symName: __ZNSt10shared_ptrI14Caja_de_ahorroEC1ISaIvEJRNSt7__cxx1112basic_stringIcSt11char_traitsIcESaIcEEEdEEESt20_Sp_alloc_shared_tagIT_EDpOT0_, symObjAddr: 0xB24, symBinAddr: 0x1000047C0, symSize: 0x58 }
  - { offset: 0x9021, size: 0x8, addend: 0x0, symName: __ZSt7forwardIdEOT_RNSt16remove_referenceIS0_E4typeE, symObjAddr: 0xB10, symBinAddr: 0x1000047AC, symSize: 0x14 }
  - { offset: 0x9059, size: 0x8, addend: 0x0, symName: __ZSt7forwardIRNSt7__cxx1112basic_stringIcSt11char_traitsIcESaIcEEEEOT_RNSt16remove_referenceIS7_E4typeE, symObjAddr: 0xAFC, symBinAddr: 0x100004798, symSize: 0x14 }
  - { offset: 0x908F, size: 0x8, addend: 0x0, symName: __ZNSt16_Sp_counted_baseILN9__gnu_cxx12_Lock_policyE2EE19_M_release_last_useEv, symObjAddr: 0xA0C, symBinAddr: 0x1000046A8, symSize: 0xF0 }
  - { offset: 0x9183, size: 0x8, addend: 0x0, symName: __ZNSt16_Sp_counted_baseILN9__gnu_cxx12_Lock_policyE2EED2Ev, symObjAddr: 0x9E4, symBinAddr: 0x100004680, symSize: 0x28 }
  - { offset: 0x91A9, size: 0x8, addend: 0x0, symName: __ZNKSt10unique_ptrI16Cuenta_corrienteSt14default_deleteIS0_EEptEv, symObjAddr: 0x9C8, symBinAddr: 0x100004664, symSize: 0x1C }
  - { offset: 0x91D3, size: 0x8, addend: 0x0, symName: __ZNKSt19__shared_ptr_accessI14Caja_de_ahorroLN9__gnu_cxx12_Lock_policyE2ELb0ELb0EEptEv, symObjAddr: 0x9AC, symBinAddr: 0x100004648, symSize: 0x1C }
  - { offset: 0x9232, size: 0x8, addend: 0x0, symName: __ZNSt10unique_ptrI16Cuenta_corrienteSt14default_deleteIS0_EED1Ev, symObjAddr: 0x944, symBinAddr: 0x1000045E0, symSize: 0x68 }
  - { offset: 0x9281, size: 0x8, addend: 0x0, symName: __ZSt11make_uniqueI16Cuenta_corrienteJRNSt7__cxx1112basic_stringIcSt11char_traitsIcESaIcEEEdRSt10shared_ptrI14Caja_de_ahorroEEENSt8__detail9_MakeUniqIT_E15__single_objectEDpOT0_, symObjAddr: 0x84C, symBinAddr: 0x1000044E8, symSize: 0xF8 }
  - { offset: 0x92FE, size: 0x8, addend: 0x0, symName: __ZNSt10shared_ptrI14Caja_de_ahorroEC1ERKS1_, symObjAddr: 0x824, symBinAddr: 0x1000044C0, symSize: 0x28 }
  - { offset: 0x934C, size: 0x8, addend: 0x0, symName: __ZNSt12__shared_ptrI14Caja_de_ahorroLN9__gnu_cxx12_Lock_policyE2EEC2ERKS3_, symObjAddr: 0x7DC, symBinAddr: 0x100004478, symSize: 0x48 }
  - { offset: 0x939F, size: 0x8, addend: 0x0, symName: __ZNSt14__shared_countILN9__gnu_cxx12_Lock_policyE2EED1Ev, symObjAddr: 0x7A8, symBinAddr: 0x100004444, symSize: 0x34 }
  - { offset: 0x93C1, size: 0x8, addend: 0x0, symName: __ZSt11make_sharedI14Caja_de_ahorroJRNSt7__cxx1112basic_stringIcSt11char_traitsIcESaIcEEEdEESt10shared_ptrINSt9enable_ifIXntsrSt8is_arrayIT_E5valueESB_E4typeEEDpOT0_, symObjAddr: 0x748, symBinAddr: 0x1000043E4, symSize: 0x60 }
  - { offset: 0x942E, size: 0x8, addend: 0x0, symName: __ZNSt16_Sp_counted_baseILN9__gnu_cxx12_Lock_policyE2EE24_M_release_last_use_coldEv, symObjAddr: 0x728, symBinAddr: 0x1000043C4, symSize: 0x20 }
  - { offset: 0x9458, size: 0x8, addend: 0x0, symName: __ZNSt16_Sp_counted_baseILN9__gnu_cxx12_Lock_policyE2EE10_M_destroyEv, symObjAddr: 0x6F4, symBinAddr: 0x100004390, symSize: 0x34 }
  - { offset: 0x9485, size: 0x8, addend: 0x0, symName: _main, symObjAddr: 0x3C4, symBinAddr: 0x100004060, symSize: 0x330 }
  - { offset: 0x952C, size: 0x8, addend: 0x0, symName: __ZNSt10shared_ptrI14Caja_de_ahorroED1Ev, symObjAddr: 0x3A4, symBinAddr: 0x100004040, symSize: 0x20 }
  - { offset: 0x9576, size: 0x8, addend: 0x0, symName: __ZNSt12__shared_ptrI14Caja_de_ahorroLN9__gnu_cxx12_Lock_policyE2EED2Ev, symObjAddr: 0x380, symBinAddr: 0x10000401C, symSize: 0x24 }
  - { offset: 0x95A3, size: 0x8, addend: 0x0, symName: __Z13dinero_pedidob, symObjAddr: 0x2A4, symBinAddr: 0x100003F40, symSize: 0xDC }
  - { offset: 0x95DC, size: 0x8, addend: 0x0, symName: __ZNSt19_Sp_make_shared_tag5_S_tiEv, symObjAddr: 0x298, symBinAddr: 0x100003F34, symSize: 0xC }
  - { offset: 0x9602, size: 0x8, addend: 0x0, symName: __ZZNSt19_Sp_make_shared_tag5_S_tiEvE5__tag, symObjAddr: 0x18D8, symBinAddr: 0x100006178, symSize: 0x0 }
  - { offset: 0x9626, size: 0x8, addend: 0x0, symName: __ZNSt16_Sp_counted_baseILN9__gnu_cxx12_Lock_policyE2EE10_M_releaseEv, symObjAddr: 0x124, symBinAddr: 0x100003DC0, symSize: 0x174 }
  - { offset: 0x987A, size: 0x8, addend: 0x0, symName: __ZL18__gthread_active_pv, symObjAddr: 0x11C, symBinAddr: 0x100003DB8, symSize: 0x8 }
  - { offset: 0x9899, size: 0x8, addend: 0x0, symName: __ZdlPvS_, symObjAddr: 0x104, symBinAddr: 0x100003DA0, symSize: 0x18 }
  - { offset: 0x98CF, size: 0x8, addend: 0x0, symName: __ZnwmPv, symObjAddr: 0xEC, symBinAddr: 0x100003D88, symSize: 0x18 }
  - { offset: 0x9905, size: 0x8, addend: 0x0, symName: __ZNKSt9type_infoeqERKS_, symObjAddr: 0x3C, symBinAddr: 0x100003CD8, symSize: 0xB0 }
  - { offset: 0x9958, size: 0x8, addend: 0x0, symName: __ZNKSt9type_info4nameEv, symObjAddr: 0x0, symBinAddr: 0x100003C9C, symSize: 0x3C }
  - { offset: 0xD58F, size: 0x8, addend: 0x0, symName: __ZStL8__ioinit, symObjAddr: 0x1B0BC, symBinAddr: 0x10000C001, symSize: 0x0 }
  - { offset: 0xDA63, size: 0x8, addend: 0x0, symName: __ZN16Cuenta_corriente12mostrar_infoEv, symObjAddr: 0x634, symBinAddr: 0x100005B84, symSize: 0xA4 }
  - { offset: 0xDA8D, size: 0x8, addend: 0x0, symName: __ZN16Cuenta_corriente7retirarEd, symObjAddr: 0x540, symBinAddr: 0x100005A90, symSize: 0xF4 }
  - { offset: 0xDAC7, size: 0x8, addend: 0x0, symName: __ZN16Cuenta_corriente9depositarEd, symObjAddr: 0x510, symBinAddr: 0x100005A60, symSize: 0x30 }
  - { offset: 0xDB01, size: 0x8, addend: 0x0, symName: __ZN14Caja_de_ahorro12mostrar_infoEv, symObjAddr: 0x3D0, symBinAddr: 0x100005920, symSize: 0x140 }
  - { offset: 0xDB2B, size: 0x8, addend: 0x0, symName: __ZN14Caja_de_ahorro7retirarEd, symObjAddr: 0x360, symBinAddr: 0x1000058B0, symSize: 0x70 }
  - { offset: 0xDB65, size: 0x8, addend: 0x0, symName: __ZN14Caja_de_ahorro9depositarEd, symObjAddr: 0x330, symBinAddr: 0x100005880, symSize: 0x30 }
  - { offset: 0xDBE0, size: 0x8, addend: 0x0, symName: __ZN16Cuenta_corrienteC1ENSt7__cxx1112basic_stringIcSt11char_traitsIcESaIcEEEdSt10shared_ptrI14Caja_de_ahorroE, symObjAddr: 0x2A4, symBinAddr: 0x1000057F4, symSize: 0x8C }
  - { offset: 0xDC27, size: 0x8, addend: 0x0, symName: __ZN16Cuenta_corrienteC2ENSt7__cxx1112basic_stringIcSt11char_traitsIcESaIcEEEdSt10shared_ptrI14Caja_de_ahorroE, symObjAddr: 0x218, symBinAddr: 0x100005768, symSize: 0x8C }
  - { offset: 0xDC9E, size: 0x8, addend: 0x0, symName: __ZN14Caja_de_ahorroC1ENSt7__cxx1112basic_stringIcSt11char_traitsIcESaIcEEEd, symObjAddr: 0x128, symBinAddr: 0x1000056E8, symSize: 0x80 }
  - { offset: 0xDCDB, size: 0x8, addend: 0x0, symName: __ZN14Caja_de_ahorroC2ENSt7__cxx1112basic_stringIcSt11char_traitsIcESaIcEEEd, symObjAddr: 0xA8, symBinAddr: 0x100005668, symSize: 0x80 }
  - { offset: 0xDD48, size: 0x8, addend: 0x0, symName: __ZN5BancoC1ENSt7__cxx1112basic_stringIcSt11char_traitsIcESaIcEEEd, symObjAddr: 0x58, symBinAddr: 0x100005618, symSize: 0x50 }
  - { offset: 0xDD85, size: 0x8, addend: 0x0, symName: __ZN5BancoC2ENSt7__cxx1112basic_stringIcSt11char_traitsIcESaIcEEEd, symObjAddr: 0x8, symBinAddr: 0x1000055C8, symSize: 0x50 }
  - { offset: 0xDDC2, size: 0x8, addend: 0x0, symName: __ZL18__gthread_active_pv, symObjAddr: 0x0, symBinAddr: 0x1000055C0, symSize: 0x8 }
...
